target datalayout = "e-m:e-p270:32:32-p271:32:32-p272:64:64-i64:64-i128:128-f80:128-n8:16:32:64-S128"
target triple = "x86_64-pc-linux-gnu"

%"class.clang::Decl" = type <{ ptr, %"class.llvm::PointerIntPair", %"class.llvm::PointerUnion", %"class.clang::SourceLocation", i32, i8, [7 x i8] }>
%"class.llvm::PointerIntPair" = type { %"struct.llvm::detail::PunnedPointer" }
%"struct.llvm::detail::PunnedPointer" = type { [8 x i8] }
%"class.llvm::PointerUnion" = type { %"class.llvm::pointer_union_detail::PointerUnionMembers" }
%"class.llvm::pointer_union_detail::PointerUnionMembers" = type { %"class.llvm::pointer_union_detail::PointerUnionMembers.0" }
%"class.llvm::pointer_union_detail::PointerUnionMembers.0" = type { %"class.llvm::pointer_union_detail::PointerUnionMembers.1" }
%"class.llvm::pointer_union_detail::PointerUnionMembers.1" = type { %"class.llvm::PointerIntPair.2" }
%"class.llvm::PointerIntPair.2" = type { %"struct.llvm::detail::PunnedPointer.3" }
%"struct.llvm::detail::PunnedPointer.3" = type { [8 x i8] }
%"class.clang::SourceLocation" = type { i32 }

; Function Attrs: mustprogress nounwind uwtable
define linkonce_odr hidden noundef i32 @_ZNK5clang4Decl7getKindEv(ptr noundef nonnull align 8 dereferenceable(33) %0) #0 comdat align 2 {
  %2 = alloca ptr, align 8
  store ptr %0, ptr %2, align 8
  %3 = load ptr, ptr %2, align 8
  %4 = getelementptr inbounds nuw %"class.clang::Decl", ptr %3, i32 0, i32 4
  %5 = load i32, ptr %4, align 4
  %6 = and i32 %5, 127
  ret i32 %6
}

; Function Attrs: mustprogress nounwind uwtable
define dso_local noundef ptr @_ZN5clang4Decl17castToDeclContextEPKS0_(ptr noundef %0) #0 align 2 {
  %2 = alloca ptr, align 8
  %3 = alloca ptr, align 8
  %4 = alloca i32, align 4
  store ptr %0, ptr %3, align 8
  %5 = load ptr, ptr %3, align 8
  %6 = call noundef i32 @_ZNK5clang4Decl7getKindEv(ptr noundef nonnull align 8 dereferenceable(33) %5)
  store i32 %6, ptr %4, align 4
  %7 = load i32, ptr %4, align 4
  switch i32 %7, label %211 [
    i32 7, label %8
    i32 6, label %15
    i32 5, label %22
    i32 4, label %29
    i32 31, label %36
    i32 36, label %43
    i32 32, label %50
    i32 35, label %57
    i32 34, label %64
    i32 33, label %71
    i32 22, label %78
    i32 3, label %85
    i32 21, label %92
    i32 24, label %99
    i32 23, label %106
    i32 20, label %113
    i32 19, label %120
    i32 18, label %127
    i32 17, label %134
    i32 16, label %141
    i32 15, label %148
    i32 2, label %155
    i32 59, label %162
    i32 55, label %169
    i32 56, label %176
    i32 57, label %183
    i32 58, label %190
    i32 1, label %197
    i32 0, label %204
  ]

8:                                                ; preds = %1
  %9 = load ptr, ptr %3, align 8
  %10 = icmp eq ptr %9, null
  br i1 %10, label %13, label %11

11:                                               ; preds = %8
  %12 = getelementptr inbounds i8, ptr %9, i64 40
  br label %13

13:                                               ; preds = %11, %8
  %14 = phi ptr [ %12, %11 ], [ null, %8 ]
  store ptr %14, ptr %2, align 8
  br label %212

15:                                               ; preds = %1
  %16 = load ptr, ptr %3, align 8
  %17 = icmp eq ptr %16, null
  br i1 %17, label %20, label %18

18:                                               ; preds = %15
  %19 = getelementptr inbounds i8, ptr %16, i64 40
  br label %20

20:                                               ; preds = %18, %15
  %21 = phi ptr [ %19, %18 ], [ null, %15 ]
  store ptr %21, ptr %2, align 8
  br label %212

22:                                               ; preds = %1
  %23 = load ptr, ptr %3, align 8
  %24 = icmp eq ptr %23, null
  br i1 %24, label %27, label %25

25:                                               ; preds = %22
  %26 = getelementptr inbounds i8, ptr %23, i64 40
  br label %27

27:                                               ; preds = %25, %22
  %28 = phi ptr [ %26, %25 ], [ null, %22 ]
  store ptr %28, ptr %2, align 8
  br label %212

29:                                               ; preds = %1
  %30 = load ptr, ptr %3, align 8
  %31 = icmp eq ptr %30, null
  br i1 %31, label %34, label %32

32:                                               ; preds = %29
  %33 = getelementptr inbounds i8, ptr %30, i64 40
  br label %34

34:                                               ; preds = %32, %29
  %35 = phi ptr [ %33, %32 ], [ null, %29 ]
  store ptr %35, ptr %2, align 8
  br label %212

36:                                               ; preds = %1
  %37 = load ptr, ptr %3, align 8
  %38 = icmp eq ptr %37, null
  br i1 %38, label %41, label %39

39:                                               ; preds = %36
  %40 = getelementptr inbounds i8, ptr %37, i64 72
  br label %41

41:                                               ; preds = %39, %36
  %42 = phi ptr [ %40, %39 ], [ null, %36 ]
  store ptr %42, ptr %2, align 8
  br label %212

43:                                               ; preds = %1
  %44 = load ptr, ptr %3, align 8
  %45 = icmp eq ptr %44, null
  br i1 %45, label %48, label %46

46:                                               ; preds = %43
  %47 = getelementptr inbounds i8, ptr %44, i64 72
  br label %48

48:                                               ; preds = %46, %43
  %49 = phi ptr [ %47, %46 ], [ null, %43 ]
  store ptr %49, ptr %2, align 8
  br label %212

50:                                               ; preds = %1
  %51 = load ptr, ptr %3, align 8
  %52 = icmp eq ptr %51, null
  br i1 %52, label %55, label %53

53:                                               ; preds = %50
  %54 = getelementptr inbounds i8, ptr %51, i64 72
  br label %55

55:                                               ; preds = %53, %50
  %56 = phi ptr [ %54, %53 ], [ null, %50 ]
  store ptr %56, ptr %2, align 8
  br label %212

57:                                               ; preds = %1
  %58 = load ptr, ptr %3, align 8
  %59 = icmp eq ptr %58, null
  br i1 %59, label %62, label %60

60:                                               ; preds = %57
  %61 = getelementptr inbounds i8, ptr %58, i64 72
  br label %62

62:                                               ; preds = %60, %57
  %63 = phi ptr [ %61, %60 ], [ null, %57 ]
  store ptr %63, ptr %2, align 8
  br label %212

64:                                               ; preds = %1
  %65 = load ptr, ptr %3, align 8
  %66 = icmp eq ptr %65, null
  br i1 %66, label %69, label %67

67:                                               ; preds = %64
  %68 = getelementptr inbounds i8, ptr %65, i64 72
  br label %69

69:                                               ; preds = %67, %64
  %70 = phi ptr [ %68, %67 ], [ null, %64 ]
  store ptr %70, ptr %2, align 8
  br label %212

71:                                               ; preds = %1
  %72 = load ptr, ptr %3, align 8
  %73 = icmp eq ptr %72, null
  br i1 %73, label %76, label %74

74:                                               ; preds = %71
  %75 = getelementptr inbounds i8, ptr %72, i64 72
  br label %76

76:                                               ; preds = %74, %71
  %77 = phi ptr [ %75, %74 ], [ null, %71 ]
  store ptr %77, ptr %2, align 8
  br label %212

78:                                               ; preds = %1
  %79 = load ptr, ptr %3, align 8
  %80 = icmp eq ptr %79, null
  br i1 %80, label %83, label %81

81:                                               ; preds = %78
  %82 = getelementptr inbounds i8, ptr %79, i64 48
  br label %83

83:                                               ; preds = %81, %78
  %84 = phi ptr [ %82, %81 ], [ null, %78 ]
  store ptr %84, ptr %2, align 8
  br label %212

85:                                               ; preds = %1
  %86 = load ptr, ptr %3, align 8
  %87 = icmp eq ptr %86, null
  br i1 %87, label %90, label %88

88:                                               ; preds = %85
  %89 = getelementptr inbounds i8, ptr %86, i64 40
  br label %90

90:                                               ; preds = %88, %85
  %91 = phi ptr [ %89, %88 ], [ null, %85 ]
  store ptr %91, ptr %2, align 8
  br label %212

92:                                               ; preds = %1
  %93 = load ptr, ptr %3, align 8
  %94 = icmp eq ptr %93, null
  br i1 %94, label %97, label %95

95:                                               ; preds = %92
  %96 = getelementptr inbounds i8, ptr %93, i64 48
  br label %97

97:                                               ; preds = %95, %92
  %98 = phi ptr [ %96, %95 ], [ null, %92 ]
  store ptr %98, ptr %2, align 8
  br label %212

99:                                               ; preds = %1
  %100 = load ptr, ptr %3, align 8
  %101 = icmp eq ptr %100, null
  br i1 %101, label %104, label %102

102:                                              ; preds = %99
  %103 = getelementptr inbounds i8, ptr %100, i64 64
  br label %104

104:                                              ; preds = %102, %99
  %105 = phi ptr [ %103, %102 ], [ null, %99 ]
  store ptr %105, ptr %2, align 8
  br label %212

106:                                              ; preds = %1
  %107 = load ptr, ptr %3, align 8
  %108 = icmp eq ptr %107, null
  br i1 %108, label %111, label %109

109:                                              ; preds = %106
  %110 = getelementptr inbounds i8, ptr %107, i64 56
  br label %111

111:                                              ; preds = %109, %106
  %112 = phi ptr [ %110, %109 ], [ null, %106 ]
  store ptr %112, ptr %2, align 8
  br label %212

113:                                              ; preds = %1
  %114 = load ptr, ptr %3, align 8
  %115 = icmp eq ptr %114, null
  br i1 %115, label %118, label %116

116:                                              ; preds = %113
  %117 = getelementptr inbounds i8, ptr %114, i64 48
  br label %118

118:                                              ; preds = %116, %113
  %119 = phi ptr [ %117, %116 ], [ null, %113 ]
  store ptr %119, ptr %2, align 8
  br label %212

120:                                              ; preds = %1
  %121 = load ptr, ptr %3, align 8
  %122 = icmp eq ptr %121, null
  br i1 %122, label %125, label %123

123:                                              ; preds = %120
  %124 = getelementptr inbounds i8, ptr %121, i64 48
  br label %125

125:                                              ; preds = %123, %120
  %126 = phi ptr [ %124, %123 ], [ null, %120 ]
  store ptr %126, ptr %2, align 8
  br label %212

127:                                              ; preds = %1
  %128 = load ptr, ptr %3, align 8
  %129 = icmp eq ptr %128, null
  br i1 %129, label %132, label %130

130:                                              ; preds = %127
  %131 = getelementptr inbounds i8, ptr %128, i64 48
  br label %132

132:                                              ; preds = %130, %127
  %133 = phi ptr [ %131, %130 ], [ null, %127 ]
  store ptr %133, ptr %2, align 8
  br label %212

134:                                              ; preds = %1
  %135 = load ptr, ptr %3, align 8
  %136 = icmp eq ptr %135, null
  br i1 %136, label %139, label %137

137:                                              ; preds = %134
  %138 = getelementptr inbounds i8, ptr %135, i64 48
  br label %139

139:                                              ; preds = %137, %134
  %140 = phi ptr [ %138, %137 ], [ null, %134 ]
  store ptr %140, ptr %2, align 8
  br label %212

141:                                              ; preds = %1
  %142 = load ptr, ptr %3, align 8
  %143 = icmp eq ptr %142, null
  br i1 %143, label %146, label %144

144:                                              ; preds = %141
  %145 = getelementptr inbounds i8, ptr %142, i64 48
  br label %146

146:                                              ; preds = %144, %141
  %147 = phi ptr [ %145, %144 ], [ null, %141 ]
  store ptr %147, ptr %2, align 8
  br label %212

148:                                              ; preds = %1
  %149 = load ptr, ptr %3, align 8
  %150 = icmp eq ptr %149, null
  br i1 %150, label %153, label %151

151:                                              ; preds = %148
  %152 = getelementptr inbounds i8, ptr %149, i64 48
  br label %153

153:                                              ; preds = %151, %148
  %154 = phi ptr [ %152, %151 ], [ null, %148 ]
  store ptr %154, ptr %2, align 8
  br label %212

155:                                              ; preds = %1
  %156 = load ptr, ptr %3, align 8
  %157 = icmp eq ptr %156, null
  br i1 %157, label %160, label %158

158:                                              ; preds = %155
  %159 = getelementptr inbounds i8, ptr %156, i64 40
  br label %160

160:                                              ; preds = %158, %155
  %161 = phi ptr [ %159, %158 ], [ null, %155 ]
  store ptr %161, ptr %2, align 8
  br label %212

162:                                              ; preds = %1
  %163 = load ptr, ptr %3, align 8
  %164 = icmp eq ptr %163, null
  br i1 %164, label %167, label %165

165:                                              ; preds = %162
  %166 = getelementptr inbounds i8, ptr %163, i64 64
  br label %167

167:                                              ; preds = %165, %162
  %168 = phi ptr [ %166, %165 ], [ null, %162 ]
  store ptr %168, ptr %2, align 8
  br label %212

169:                                              ; preds = %1
  %170 = load ptr, ptr %3, align 8
  %171 = icmp eq ptr %170, null
  br i1 %171, label %174, label %172

172:                                              ; preds = %169
  %173 = getelementptr inbounds i8, ptr %170, i64 64
  br label %174

174:                                              ; preds = %172, %169
  %175 = phi ptr [ %173, %172 ], [ null, %169 ]
  store ptr %175, ptr %2, align 8
  br label %212

176:                                              ; preds = %1
  %177 = load ptr, ptr %3, align 8
  %178 = icmp eq ptr %177, null
  br i1 %178, label %181, label %179

179:                                              ; preds = %176
  %180 = getelementptr inbounds i8, ptr %177, i64 64
  br label %181

181:                                              ; preds = %179, %176
  %182 = phi ptr [ %180, %179 ], [ null, %176 ]
  store ptr %182, ptr %2, align 8
  br label %212

183:                                              ; preds = %1
  %184 = load ptr, ptr %3, align 8
  %185 = icmp eq ptr %184, null
  br i1 %185, label %188, label %186

186:                                              ; preds = %183
  %187 = getelementptr inbounds i8, ptr %184, i64 64
  br label %188

188:                                              ; preds = %186, %183
  %189 = phi ptr [ %187, %186 ], [ null, %183 ]
  store ptr %189, ptr %2, align 8
  br label %212

190:                                              ; preds = %1
  %191 = load ptr, ptr %3, align 8
  %192 = icmp eq ptr %191, null
  br i1 %192, label %195, label %193

193:                                              ; preds = %190
  %194 = getelementptr inbounds i8, ptr %191, i64 64
  br label %195

195:                                              ; preds = %193, %190
  %196 = phi ptr [ %194, %193 ], [ null, %190 ]
  store ptr %196, ptr %2, align 8
  br label %212

197:                                              ; preds = %1
  %198 = load ptr, ptr %3, align 8
  %199 = icmp eq ptr %198, null
  br i1 %199, label %202, label %200

200:                                              ; preds = %197
  %201 = getelementptr inbounds i8, ptr %198, i64 40
  br label %202

202:                                              ; preds = %200, %197
  %203 = phi ptr [ %201, %200 ], [ null, %197 ]
  store ptr %203, ptr %2, align 8
  br label %212

204:                                              ; preds = %1
  %205 = load ptr, ptr %3, align 8
  %206 = icmp eq ptr %205, null
  br i1 %206, label %209, label %207

207:                                              ; preds = %204
  %208 = getelementptr inbounds i8, ptr %205, i64 40
  br label %209

209:                                              ; preds = %207, %204
  %210 = phi ptr [ %208, %207 ], [ null, %204 ]
  store ptr %210, ptr %2, align 8
  br label %212

211:                                              ; preds = %1
  unreachable

212:                                              ; preds = %209, %202, %195, %188, %181, %174, %167, %160, %153, %146, %139, %132, %125, %118, %111, %104, %97, %90, %83, %76, %69, %62, %55, %48, %41, %34, %27, %20, %13
  %213 = load ptr, ptr %2, align 8
  ret ptr %213
}