; Function Attrs: mustprogress nofree norecurse nosync nounwind willreturn memory(argmem: read) uwtable
define dso_local noundef nonnull ptr @_ZN5clang4Decl17castToDeclContextEPKS0_(ptr noundef readonly %0) local_unnamed_addr #2 align 2 {
switch.lookup:
  %1 = getelementptr inbounds nuw i8, ptr %0, i64 28
  %2 = load i32, ptr %1, align 4
  %3 = and i32 %2, 127
  %4 = zext nneg i32 %3 to i64
  %switch.gep = getelementptr inbounds [60 x i64], ptr @switch.table._ZN5clang4Decl17castToDeclContextEPKS0_, i64 0, i64 %4
  %switch.load = load i64, ptr %switch.gep, align 8
  %5 = getelementptr inbounds i8, ptr %0, i64 %switch.load
  ret ptr %5
}